; ModuleID = 'source-C-CXX/11/1229.cpp'
source_filename = "source-C-CXX/11/1229.cpp"
target datalayout = "e-m:e-p270:32:32-p271:32:32-p272:64:64-i64:64-f80:128-n8:16:32:64-S128"
target triple = "x86_64-pc-linux-gnu"

%"class.std::ios_base::Init" = type { i8 }
%"class.std::basic_istream" = type { i32 (...)**, i64, %"class.std::basic_ios" }
%"class.std::basic_ios" = type { %"class.std::ios_base", %"class.std::basic_ostream"*, i8, i8, %"class.std::basic_streambuf"*, %"class.std::ctype"*, %"class.std::num_put"*, %"class.std::num_get"* }
%"class.std::ios_base" = type { i32 (...)**, i64, i64, i32, i32, i32, %"struct.std::ios_base::_Callback_list"*, %"struct.std::ios_base::_Words", [8 x %"struct.std::ios_base::_Words"], i32, %"struct.std::ios_base::_Words"*, %"class.std::locale" }
%"struct.std::ios_base::_Callback_list" = type { %"struct.std::ios_base::_Callback_list"*, void (i32, %"class.std::ios_base"*, i32)*, i32, i32 }
%"struct.std::ios_base::_Words" = type { i8*, i64 }
%"class.std::locale" = type { %"class.std::locale::_Impl"* }
%"class.std::locale::_Impl" = type { i32, %"class.std::locale::facet"**, i64, %"class.std::locale::facet"**, i8** }
%"class.std::locale::facet" = type <{ i32 (...)**, i32, [4 x i8] }>
%"class.std::basic_ostream" = type { i32 (...)**, %"class.std::basic_ios" }
%"class.std::basic_streambuf" = type { i32 (...)**, i8*, i8*, i8*, i8*, i8*, i8*, %"class.std::locale" }
%"class.std::ctype" = type <{ %"class.std::locale::facet.base", [4 x i8], %struct.__locale_struct*, i8, [7 x i8], i32*, i32*, i16*, i8, [256 x i8], [256 x i8], i8, [6 x i8] }>
%"class.std::locale::facet.base" = type <{ i32 (...)**, i32 }>
%struct.__locale_struct = type { [13 x %struct.__locale_data*], i16*, i32*, i32*, [13 x i8*] }
%struct.__locale_data = type opaque
%"class.std::num_put" = type { %"class.std::locale::facet.base", [4 x i8] }
%"class.std::num_get" = type { %"class.std::locale::facet.base", [4 x i8] }

@_ZStL8__ioinit = internal global %"class.std::ios_base::Init" zeroinitializer, align 1
@__dso_handle = external hidden global i8
@_ZSt3cin = external global %"class.std::basic_istream", align 8
@_ZSt4cout = external global %"class.std::basic_ostream", align 8
@llvm.global_ctors = appending global [1 x { i32, void ()*, i8* }] [{ i32, void ()*, i8* } { i32 65535, void ()* @_GLOBAL__sub_I_1229.cpp, i8* null }]

declare void @_ZNSt8ios_base4InitC1Ev(%"class.std::ios_base::Init"* nonnull align 1 dereferenceable(1)) unnamed_addr #0

; Function Attrs: nounwind
declare void @_ZNSt8ios_base4InitD1Ev(%"class.std::ios_base::Init"* nonnull align 1 dereferenceable(1)) unnamed_addr #1

; Function Attrs: nofree nounwind
declare i32 @__cxa_atexit(void (i8*)*, i8*, i8*) local_unnamed_addr #2

; Function Attrs: mustprogress norecurse sspstrong uwtable
define dso_local i32 @main() local_unnamed_addr #3 {
  %1 = alloca [16 x i32], align 16
  %2 = bitcast [16 x i32]* %1 to i8*
  call void @llvm.lifetime.start.p0i8(i64 64, i8* nonnull %2) #9
  br label %3

3:                                                ; preds = %18, %0
  %4 = phi i64 [ 0, %0 ], [ %19, %18 ]
  %5 = getelementptr inbounds [16 x i32], [16 x i32]* %1, i64 0, i64 %4
  %6 = call nonnull align 8 dereferenceable(16) %"class.std::basic_istream"* @_ZNSirsERi(%"class.std::basic_istream"* nonnull align 8 dereferenceable(16) @_ZSt3cin, i32* nonnull align 4 dereferenceable(4) %5)
  %7 = load i32, i32* %5, align 4, !tbaa !5
  switch i32 %7, label %16 [
    i32 -1, label %126
    i32 0, label %8
  ]

8:                                                ; preds = %3
  %9 = trunc i64 %4 to i32
  %10 = icmp ugt i32 %9, 1
  br i1 %10, label %11, label %94

11:                                               ; preds = %8
  %12 = and i64 %4, 4294967295
  %13 = add i32 %9, -1
  %14 = call i32 @llvm.smax.i32(i32 %13, i32 1)
  %15 = zext i32 %14 to i64
  br label %24

16:                                               ; preds = %3
  %17 = add nuw i64 %4, 1
  br label %18

18:                                               ; preds = %16, %122
  %19 = phi i64 [ %17, %16 ], [ 0, %122 ]
  br label %3, !llvm.loop !9

20:                                               ; preds = %81, %74, %24
  %21 = phi i32 [ %27, %24 ], [ %76, %74 ], [ %91, %81 ]
  %22 = add nuw nsw i64 %26, 1
  %23 = icmp eq i64 %30, %15
  br i1 %23, label %94, label %24, !llvm.loop !11

24:                                               ; preds = %11, %20
  %25 = phi i64 [ 0, %11 ], [ %30, %20 ]
  %26 = phi i64 [ 1, %11 ], [ %22, %20 ]
  %27 = phi i32 [ 0, %11 ], [ %21, %20 ]
  %28 = xor i64 %25, -1
  %29 = add nsw i64 %12, %28
  %30 = add nuw nsw i64 %25, 1
  %31 = icmp ult i64 %30, %12
  br i1 %31, label %32, label %20

32:                                               ; preds = %24
  %33 = getelementptr inbounds [16 x i32], [16 x i32]* %1, i64 0, i64 %25
  %34 = load i32, i32* %33, align 4, !tbaa !5
  %35 = shl nsw i32 %34, 1
  %36 = icmp ult i64 %29, 8
  br i1 %36, label %78, label %37

37:                                               ; preds = %32
  %38 = and i64 %29, -8
  %39 = add i64 %26, %38
  %40 = insertelement <4 x i32> <i32 poison, i32 0, i32 0, i32 0>, i32 %27, i32 0
  %41 = insertelement <4 x i32> poison, i32 %35, i32 0
  %42 = shufflevector <4 x i32> %41, <4 x i32> poison, <4 x i32> zeroinitializer
  %43 = insertelement <4 x i32> poison, i32 %35, i32 0
  %44 = shufflevector <4 x i32> %43, <4 x i32> poison, <4 x i32> zeroinitializer
  %45 = insertelement <4 x i32> poison, i32 %34, i32 0
  %46 = shufflevector <4 x i32> %45, <4 x i32> poison, <4 x i32> zeroinitializer
  %47 = insertelement <4 x i32> poison, i32 %34, i32 0
  %48 = shufflevector <4 x i32> %47, <4 x i32> poison, <4 x i32> zeroinitializer
  br label %49

49:                                               ; preds = %49, %37
  %50 = phi i64 [ 0, %37 ], [ %72, %49 ]
  %51 = phi <4 x i32> [ %40, %37 ], [ %70, %49 ]
  %52 = phi <4 x i32> [ zeroinitializer, %37 ], [ %71, %49 ]
  %53 = add i64 %26, %50
  %54 = getelementptr inbounds [16 x i32], [16 x i32]* %1, i64 0, i64 %53
  %55 = bitcast i32* %54 to <4 x i32>*
  %56 = load <4 x i32>, <4 x i32>* %55, align 4, !tbaa !5
  %57 = getelementptr inbounds i32, i32* %54, i64 4
  %58 = bitcast i32* %57 to <4 x i32>*
  %59 = load <4 x i32>, <4 x i32>* %58, align 4, !tbaa !5
  %60 = icmp eq <4 x i32> %56, %42
  %61 = icmp eq <4 x i32> %59, %44
  %62 = shl nsw <4 x i32> %56, <i32 1, i32 1, i32 1, i32 1>
  %63 = shl nsw <4 x i32> %59, <i32 1, i32 1, i32 1, i32 1>
  %64 = icmp eq <4 x i32> %46, %62
  %65 = icmp eq <4 x i32> %48, %63
  %66 = select <4 x i1> %60, <4 x i1> <i1 true, i1 true, i1 true, i1 true>, <4 x i1> %64
  %67 = select <4 x i1> %61, <4 x i1> <i1 true, i1 true, i1 true, i1 true>, <4 x i1> %65
  %68 = zext <4 x i1> %66 to <4 x i32>
  %69 = zext <4 x i1> %67 to <4 x i32>
  %70 = add <4 x i32> %51, %68
  %71 = add <4 x i32> %52, %69
  %72 = add nuw i64 %50, 8
  %73 = icmp eq i64 %72, %38
  br i1 %73, label %74, label %49, !llvm.loop !12

74:                                               ; preds = %49
  %75 = add <4 x i32> %71, %70
  %76 = call i32 @llvm.vector.reduce.add.v4i32(<4 x i32> %75)
  %77 = icmp eq i64 %29, %38
  br i1 %77, label %20, label %78

78:                                               ; preds = %32, %74
  %79 = phi i64 [ %26, %32 ], [ %39, %74 ]
  %80 = phi i32 [ %27, %32 ], [ %76, %74 ]
  br label %81

81:                                               ; preds = %78, %81
  %82 = phi i64 [ %92, %81 ], [ %79, %78 ]
  %83 = phi i32 [ %91, %81 ], [ %80, %78 ]
  %84 = getelementptr inbounds [16 x i32], [16 x i32]* %1, i64 0, i64 %82
  %85 = load i32, i32* %84, align 4, !tbaa !5
  %86 = icmp eq i32 %85, %35
  %87 = shl nsw i32 %85, 1
  %88 = icmp eq i32 %34, %87
  %89 = select i1 %86, i1 true, i1 %88
  %90 = zext i1 %89 to i32
  %91 = add nsw i32 %83, %90
  %92 = add nuw nsw i64 %82, 1
  %93 = icmp eq i64 %92, %12
  br i1 %93, label %20, label %81, !llvm.loop !14

94:                                               ; preds = %20, %8
  %95 = phi i32 [ 0, %8 ], [ %21, %20 ]
  %96 = call nonnull align 8 dereferenceable(8) %"class.std::basic_ostream"* @_ZNSolsEi(%"class.std::basic_ostream"* nonnull align 8 dereferenceable(8) @_ZSt4cout, i32 %95)
  %97 = bitcast %"class.std::basic_ostream"* %96 to i8**
  %98 = load i8*, i8** %97, align 8, !tbaa !16
  %99 = getelementptr i8, i8* %98, i64 -24
  %100 = bitcast i8* %99 to i64*
  %101 = load i64, i64* %100, align 8
  %102 = bitcast %"class.std::basic_ostream"* %96 to i8*
  %103 = add nsw i64 %101, 240
  %104 = getelementptr inbounds i8, i8* %102, i64 %103
  %105 = bitcast i8* %104 to %"class.std::ctype"**
  %106 = load %"class.std::ctype"*, %"class.std::ctype"** %105, align 8, !tbaa !18
  %107 = icmp eq %"class.std::ctype"* %106, null
  br i1 %107, label %108, label %109

108:                                              ; preds = %94
  call void @_ZSt16__throw_bad_castv() #10
  unreachable

109:                                              ; preds = %94
  %110 = getelementptr inbounds %"class.std::ctype", %"class.std::ctype"* %106, i64 0, i32 8
  %111 = load i8, i8* %110, align 8, !tbaa !22
  %112 = icmp eq i8 %111, 0
  br i1 %112, label %116, label %113

113:                                              ; preds = %109
  %114 = getelementptr inbounds %"class.std::ctype", %"class.std::ctype"* %106, i64 0, i32 9, i64 10
  %115 = load i8, i8* %114, align 1, !tbaa !24
  br label %122

116:                                              ; preds = %109
  call void @_ZNKSt5ctypeIcE13_M_widen_initEv(%"class.std::ctype"* nonnull align 8 dereferenceable(570) %106)
  %117 = bitcast %"class.std::ctype"* %106 to i8 (%"class.std::ctype"*, i8)***
  %118 = load i8 (%"class.std::ctype"*, i8)**, i8 (%"class.std::ctype"*, i8)*** %117, align 8, !tbaa !16
  %119 = getelementptr inbounds i8 (%"class.std::ctype"*, i8)*, i8 (%"class.std::ctype"*, i8)** %118, i64 6
  %120 = load i8 (%"class.std::ctype"*, i8)*, i8 (%"class.std::ctype"*, i8)** %119, align 8
  %121 = call signext i8 %120(%"class.std::ctype"* nonnull align 8 dereferenceable(570) %106, i8 signext 10)
  br label %122

122:                                              ; preds = %113, %116
  %123 = phi i8 [ %115, %113 ], [ %121, %116 ]
  %124 = call nonnull align 8 dereferenceable(8) %"class.std::basic_ostream"* @_ZNSo3putEc(%"class.std::basic_ostream"* nonnull align 8 dereferenceable(8) %96, i8 signext %123)
  %125 = call nonnull align 8 dereferenceable(8) %"class.std::basic_ostream"* @_ZNSo5flushEv(%"class.std::basic_ostream"* nonnull align 8 dereferenceable(8) %124)
  br label %18

126:                                              ; preds = %3
  call void @llvm.lifetime.end.p0i8(i64 64, i8* nonnull %2) #9
  ret i32 0
}

; Function Attrs: argmemonly mustprogress nofree nosync nounwind willreturn
declare void @llvm.lifetime.start.p0i8(i64 immarg, i8* nocapture) #4

declare nonnull align 8 dereferenceable(16) %"class.std::basic_istream"* @_ZNSirsERi(%"class.std::basic_istream"* nonnull align 8 dereferenceable(16), i32* nonnull align 4 dereferenceable(4)) local_unnamed_addr #0

declare nonnull align 8 dereferenceable(8) %"class.std::basic_ostream"* @_ZNSolsEi(%"class.std::basic_ostream"* nonnull align 8 dereferenceable(8), i32) local_unnamed_addr #0

; Function Attrs: argmemonly mustprogress nofree nosync nounwind willreturn
declare void @llvm.lifetime.end.p0i8(i64 immarg, i8* nocapture) #4

declare nonnull align 8 dereferenceable(8) %"class.std::basic_ostream"* @_ZNSo3putEc(%"class.std::basic_ostream"* nonnull align 8 dereferenceable(8), i8 signext) local_unnamed_addr #0

declare nonnull align 8 dereferenceable(8) %"class.std::basic_ostream"* @_ZNSo5flushEv(%"class.std::basic_ostream"* nonnull align 8 dereferenceable(8)) local_unnamed_addr #0

; Function Attrs: noreturn
declare void @_ZSt16__throw_bad_castv() local_unnamed_addr #5

declare void @_ZNKSt5ctypeIcE13_M_widen_initEv(%"class.std::ctype"* nonnull align 8 dereferenceable(570)) local_unnamed_addr #0

; Function Attrs: sspstrong uwtable
define internal void @_GLOBAL__sub_I_1229.cpp() #6 section ".text.startup" {
  tail call void @_ZNSt8ios_base4InitC1Ev(%"class.std::ios_base::Init"* nonnull align 1 dereferenceable(1) @_ZStL8__ioinit)
  %1 = tail call i32 @__cxa_atexit(void (i8*)* bitcast (void (%"class.std::ios_base::Init"*)* @_ZNSt8ios_base4InitD1Ev to void (i8*)*), i8* getelementptr inbounds (%"class.std::ios_base::Init", %"class.std::ios_base::Init"* @_ZStL8__ioinit, i64 0, i32 0), i8* nonnull @__dso_handle) #9
  ret void
}

; Function Attrs: nofree nosync nounwind readnone speculatable willreturn
declare i32 @llvm.smax.i32(i32, i32) #7

; Function Attrs: nofree nosync nounwind readnone willreturn
declare i32 @llvm.vector.reduce.add.v4i32(<4 x i32>) #8


!llvm.module.flags = !{!0, !1, !2, !3}
!llvm.ident = !{!4}

!0 = !{i32 1, !"wchar_size", i32 4}
!1 = !{i32 7, !"PIC Level", i32 2}
!2 = !{i32 7, !"PIE Level", i32 2}
!3 = !{i32 7, !"uwtable", i32 1}
!4 = !{!"clang version 13.0.0"}
!5 = !{!6, !6, i64 0}
!6 = !{!"int", !7, i64 0}
!7 = !{!"omnipotent char", !8, i64 0}
!8 = !{!"Simple C++ TBAA"}
!9 = distinct !{!9, !10}
!10 = !{!"llvm.loop.mustprogress"}
!11 = distinct !{!11, !10}
!12 = distinct !{!12, !10, !13}
!13 = !{!"llvm.loop.isvectorized", i32 1}
!14 = distinct !{!14, !10, !15, !13}
!15 = !{!"llvm.loop.unroll.runtime.disable"}
!16 = !{!17, !17, i64 0}
!17 = !{!"vtable pointer", !8, i64 0}
!18 = !{!19, !20, i64 240}
!19 = !{!"_ZTSSt9basic_iosIcSt11char_traitsIcEE", !20, i64 216, !7, i64 224, !21, i64 225, !20, i64 232, !20, i64 240, !20, i64 248, !20, i64 256}
!20 = !{!"any pointer", !7, i64 0}
!21 = !{!"bool", !7, i64 0}
!22 = !{!23, !7, i64 56}
!23 = !{!"_ZTSSt5ctypeIcE", !20, i64 16, !21, i64 24, !20, i64 32, !20, i64 40, !20, i64 48, !7, i64 56, !7, i64 57, !7, i64 313, !7, i64 569}
!24 = !{!7, !7, i64 0}
